(dp0
S'Make It Easy to Reuse\n'
p1
S'If it\xe2\x80\x99s easy to reuse, people will. Create an environment that supports reuse.\n'
p2
sS'Finish What You Start\n'
p3
S'Where possible, the routine or object that allocates a resource should be responsible for deallocating it.\n'
p4
sS'Always Design for Concurrency\n'
p5
S'Allow for concurrency, and you\xe2\x80\x99ll design cleaner interfaces with fewer assumptions.\n'
p6
sS'There Are No Final Decisions\n'
p7
S'No decision is cast in stone. Instead, consider each as being written in the sand at the beach, and plan for change.\n'
p8
sS'Separate Views from Models\n'
p9
S'Gain flexibility at low cost by designing your application in terms of models and views.\n'
p10
sS'Don\xe2\x80\x99t Think Outside the Box\xe2\x80\x94Find the Box\n'
p11
S'When faced with an impossible problem, identify the real constraints. Ask yourself: \xe2\x80\x9cDoes it have to be done this way? Does it have to be done at all?\xe2\x80\x9d\n'
p12
sS'Use Saboteurs to Test Your Testing\n'
p13
S'Introduce bugs on purpose in a separate copy of the source to verify that testing will catch them.\n'
p14
sS'Don\xe2\x80\x99t Use Manual Procedures\n'
p15
S'A shell script or batch file will execute the same instructions, in the same order, time after time.\n'
p16
sS'Test Early. Test Often. Test Automatically.\n'
p17
S'Tests that run with every build are much more effective than test plans that sit on a shelf.\n'
p18
sS'Don\xe2\x80\x99t Panic When Debugging\n'
p19
S'Take a deep breath and THINK! about what could be causing the bug.\n'
p20
sS'Gently Exceed Your Users\xe2\x80\x99 Expectations\n'
p21
S'Come to understand your users\xe2\x80\x99 expectations, then deliver just that little bit more.\n'
p22
sS'Analyze Workflow to Improve Concurrency\n'
p23
S'Exploit concurrency in your user\xe2\x80\x99s workflow.\n'
p24
sS'Use Exceptions for Exceptional Problems\n'
p25
S'Exceptions can suffer from all the readability and maintainability problems of classic spaghetti code. Reserve exceptions for exceptional things.\n'
p26
sS'Fix the Problem, Not the Blame\n'
p27
S'It doesn\xe2\x80\x99t really matter whether the bug is your fault or someone else\xe2\x80\x99s\xe2\x80\x94it is still your problem, and it still needs to be fixed.\n'
p28
sS'Sign Your Work\n'
p29
S'Craftsmen of an earlier age were proud to sign their work. You should be, too.'
p30
sS'Design Using Services\n'
p31
S'Design in terms of services\xe2\x80\x94independent, concurrent objects behind well-defined, consistent interfaces.\n'
p32
sS'Put Abstractions in Code, Details in Metadata\n'
p33
S'Program for the general case, and put the specifics outside the compiled code base.\n'
p34
sS'Be a Catalyst for Change\n'
p35
S'You can\xe2\x80\x99t force change on people. Instead, show them how the future might be and help them participate in creating it.\n'
p36
sS'Estimate the Order of Your Algorithms\n'
p37
S'Get a feel for how long things are likely to take before you write code.\n'
p38
sS'Learn a Text Manipulation Language\n'
p39
S'You spend a large part of each day working with text. Why not have the computer do some of it for you?\n'
p40
sS'Estimate to Avoid Surprises\n'
p41
S'Estimate before you start. You\xe2\x80\x99ll spot potential problems up front.\n'
p42
sS'Test Your Estimates\n'
p43
S'Mathematical analysis of algorithms doesn\xe2\x80\x99t tell you everything. Try timing your code in its target environment.\n'
p44
sS'Critically Analyze What You Read and Hear\n'
p45
S'Don\xe2\x80\x99t be swayed by vendors, media hype, or dogma. Analyze information in terms of you and your project.\n'
p46
sS'Costly Tools Don\xe2\x80\x99t Produce Better Designs\n'
p47
S'Beware of vendor hype, industry dogma, and the aura of the price tag. Judge tools on their merits.\n'
p48
sS'Start When You\xe2\x80\x99re Ready\n'
p49
S'You\xe2\x80\x99ve been building experience all your life. Don\xe2\x80\x99t ignore niggling doubts.\n'
p50
sS'Use Tracer Bullets to Find the Target\n'
p51
S'Tracer bullets let you home in on your target by trying things and seeing how close they land.\n'
p52
sS'Design with Contracts\n'
p53
S'Use contracts to document and verify that code does no more and no less than it claims to do.\n'
p54
sS'Use a Project Glossary\n'
p55
S'Create and maintain a single source of all the specific terms and vocabulary for a project.\n'
p56
sS'Keep Knowledge in Plain Text\n'
p57
S'Plain text won\xe2\x80\x99t become obsolete. It helps leverage your work and simplifies debugging and testing.\n'
p58
sS'Don\xe2\x80\x99t Use Wizard Code You Don\xe2\x80\x99t Understand\n'
p59
S'Wizards can generate reams of code. Make sure you understand all of it before you incorporate it into your project.\n'
p60
sS'It\xe2\x80\x99s Both What You Say and the Way You Say It\n'
p61
S'There\xe2\x80\x99s no point in having great ideas if you don\xe2\x80\x99t communicate them effectively.\n'
p62
sS'Care About Your Craft\n'
p63
S'Why spend your life developing software unless you care about doing it well?\n'
p64
sS'Minimize Coupling Between Modules\n'
p65
S'Avoid coupling by writing \xe2\x80\x9cshy\xe2\x80\x9d code and applying the Law of Demeter.\n'
p66
sS'Use Blackboards to Coordinate Workflow\n'
p67
S'Use blackboards to coordinate disparate facts and agents, while maintaining independence and isolation among participants.\n'
p68
sS'Test State Coverage, Not Code Coverage\n'
p69
S'Identify and test significant program states. Just testing lines of code isn\xe2\x80\x99t enough.\n'
p70
sS'Design to Test\n'
p71
S'Start thinking about testing before you write a line of code.\n'
p72
sS'Refactor Early, Refactor Often\n'
p73
S'Just as you might weed and rearrange a garden, rewrite, rework, and re-architect code when it needs it. Fix the root of the problem.\n'
p74
sS'Make Quality a Requirements Issue\n'
p75
S'Involve your users in determining the project\xe2\x80\x99s real quality requirements.\n'
p76
sS'\xe2\x80\x9cselect\xe2\x80\x9d Isn\xe2\x80\x99t Broken\n'
p77
S'It is rare to find a bug in the OS or the compiler, or even a third-party product or library. The bug is most likely in the application.\n'
p78
sS'Test Your Software, or Your Users Will\n'
p79
S'Test ruthlessly. Don\xe2\x80\x99t make your users find bugs for you.\n'
p80
sS'Use the Power of Command Shells\n'
p81
S'Use the shell when graphical user interfaces don\xe2\x80\x99t cut it.\n'
p82
sS'Use Assertions to Prevent the Impossible\n'
p83
S'Assertions validate your assumptions. Use them to protect your code from an uncertain world.\n'
p84
sS'Provide Options, Don\xe2\x80\x99t Make Lame Excuses\n'
p85
S'Instead of excuses, provide options. Don\xe2\x80\x99t say it can\xe2\x80\x99t be done; explain what can be done.\n'
p86
sS'You Can\xe2\x80\x99t Write Perfect Software\n'
p87
S'Software can\xe2\x80\x99t be perfect. Protect your code and users from the inevitable errors.\n'
p88
sS'Write Code That Writes Code\n'
p89
S'Code generators increase your productivity and help avoid duplication.\n'
p90
sS'Remember the Big Picture\n'
p91
S'Don\xe2\x80\x99t get so engrossed in the details that you forget to check what\xe2\x80\x99s happening around you.\n'
p92
sS'Work with a User to Think Like a User\n'
p93
S'It\xe2\x80\x99s the best way to gain insight into how the system will really be used.\n'
p94
sS'Iterate the Schedule with the Code\n'
p95
S'Use experience you gain as you implement to refine the project time scales.\n'
p96
sS'Configure, Don\xe2\x80\x99t Integrate\n'
p97
S'Implement technology choices for an application as configuration options, not through integration or engineering.\n'
p98
sS'Program Close to the Problem Domain\n'
p99
S'Design and code in your user\xe2\x80\x99s language.\n'
p100
sS'DRY\xe2\x80\x94Don\xe2\x80\x99t Repeat Yourself\n'
p101
S'Every piece of knowledge must have a single, unambiguous, authoritative representation within a system.\n'
p102
sS'Eliminate Effects Between Unrelated Things\n'
p103
S'Design components that are self-contained, independent, and have a single, well-defined purpose.\n'
p104
sS'Don\xe2\x80\x99t Assume It\xe2\x80\x94Prove It\n'
p105
S'Prove your assumptions in the actual environment\xe2\x80\x94with real data and boundary conditions.\n'
p106
sS'Don\xe2\x80\x99t Be a Slave to Formal Methods\n'
p107
S'Don\xe2\x80\x99t blindly adopt any technique without putting it into the context of your development practices and capabilities.\n'
p108
sS'Invest Regularly in Your Knowledge Portfolio\n'
p109
S'Make learning a habit.\n'
p110
sS'Use a Single Editor Well\n'
p111
S'The editor should be an extension of your hand; make sure your editor is configurable, extensible, and programmable.\n'
p112
sS'Build Documentation In, Don\xe2\x80\x99t Bolt It On\n'
p113
S'Documentation created separately from code is less likely to be correct and up to date.\n'
p114
sS'Don\xe2\x80\x99t Gather Requirements\xe2\x80\x94Dig for Them\n'
p115
S'Requirements rarely lie on the surface. They\xe2\x80\x99re buried deep beneath layers of assumptions, misconceptions, and politics.\n'
p116
sS'Think! About Your Work\n'
p117
S'Turn off the autopilot and take control. Constantly critique and appraise your work.\n'
p118
sS'Organize Teams Around Functionality\n'
p119
S'Don\xe2\x80\x99t separate designers from coders, testers from data modelers. Build teams the way you build code.\n'
p120
sS'Abstractions Live Longer than Details\n'
p121
S'Invest in the abstraction, not the implementation. Abstractions can survive the barrage of changes from different implementations and new technologies.\n'
p122
sS'Some Things Are Better Done than Described\n'
p123
S'Don\xe2\x80\x99t fall into the specification spiral\xe2\x80\x94at some point you need to start coding.\n'
p124
sS'Always Use Source Code Control\n'
p125
S'Source code control is a time machine for your work\xe2\x80\x94you can go back.\n'
p126
sS'Don\xe2\x80\x99t Program by Coincidence\n'
p127
S'Rely only on reliable things. Beware of accidental complexity, and don\xe2\x80\x99t confuse a happy coincidence with a purposeful plan.\n'
p128
sS'Don\xe2\x80\x99t Live with Broken Windows\n'
p129
S'Fix bad designs, wrong decisions, and poor code when you see them.\n'
p130
sS'English is Just a Programming Language\n'
p131
S'Write documents as you would write code: honor the DRY principle, use metadata, MVC, automatic generation, and so on.\n'
p132
sS'Find Bugs Once\n'
p133
S'Once a human tester finds a bug, it should be the last time a human tester finds that bug. Automatic tests should check for it from then on.\n'
p134
sS'Prototype to Learn\n'
p135
S'Prototyping is a learning experience. Its value lies not in the code you produce, but in the lessons you learn.\n'
p136
sS'Coding Ain\xe2\x80\x99t Done \xe2\x80\x98Til All the Tests Run\n'
p137
S'\xe2\x80\x98Nuff said.\n'
p138
sS'Crash Early\n'
p139
S'A dead program normally does a lot less damage than a crippled one.\n'
p140
s.